; Function Attrs: nounwind uwtable
define ptr @l_Lean_Elab_Tactic_BVDecide_Frontend_ReifiedBVExpr_of_go___lambda__20(ptr noundef %0, ptr noundef %1, ptr noundef %2, ptr noundef %3, ptr readnone captures(none) %4, ptr noundef %5, ptr noundef %6, ptr noundef %7, ptr noundef %8, ptr noundef %9, ptr noundef %10, ptr noundef %11) local_unnamed_addr #1 {
  %13 = load ptr, ptr @l_Lean_Elab_Tactic_BVDecide_Frontend_ReifiedBVLogical_of_go___lambda__5___closed__1, align 8, !tbaa !9
  %14 = tail call ptr @l_Lean_Expr_cleanupAnnotations(ptr noundef %0) #5
  %15 = tail call zeroext i8 @l_Lean_Expr_isApp(ptr noundef %14) #5
  %16 = icmp eq i8 %15, 0
  br i1 %16, label %17, label %55

17:                                               ; preds = %12
  %18 = ptrtoint ptr %14 to i64
  %19 = and i64 %18, 1
  %.not71 = icmp eq i64 %19, 0
  br i1 %.not71, label %20, label %lean_dec.exit53

20:                                               ; preds = %17
  %21 = load i32, ptr %14, align 4, !tbaa !4
  %22 = icmp sgt i32 %21, 1
  br i1 %22, label %23, label %25, !prof !11

23:                                               ; preds = %20
  %24 = add nsw i32 %21, -1
  store i32 %24, ptr %14, align 4, !tbaa !4
  br label %lean_dec.exit53

25:                                               ; preds = %20
  %.not.i = icmp eq i32 %21, 0
  br i1 %.not.i, label %lean_dec.exit53, label %26

26:                                               ; preds = %25
  tail call void @lean_dec_ref_cold(ptr noundef nonnull %14) #5
  br label %lean_dec.exit53

lean_dec.exit53:                                  ; preds = %26, %25, %23, %17
  %27 = ptrtoint ptr %3 to i64
  %28 = and i64 %27, 1
  %.not72 = icmp eq i64 %28, 0
  br i1 %.not72, label %29, label %lean_dec.exit52

29:                                               ; preds = %lean_dec.exit53
  %30 = load i32, ptr %3, align 4, !tbaa !4
  %31 = icmp sgt i32 %30, 1
  br i1 %31, label %32, label %34, !prof !11

32:                                               ; preds = %29
  %33 = add nsw i32 %30, -1
  store i32 %33, ptr %3, align 4, !tbaa !4
  br label %lean_dec.exit52

34:                                               ; preds = %29
  %.not.i54 = icmp eq i32 %30, 0
  br i1 %.not.i54, label %lean_dec.exit52, label %35

35:                                               ; preds = %34
  tail call void @lean_dec_ref_cold(ptr noundef nonnull %3) #5
  br label %lean_dec.exit52

lean_dec.exit52:                                  ; preds = %35, %34, %32, %lean_dec.exit53
  %36 = ptrtoint ptr %2 to i64
  %37 = and i64 %36, 1
  %.not73 = icmp eq i64 %37, 0
  br i1 %.not73, label %38, label %lean_dec.exit51

38:                                               ; preds = %lean_dec.exit52
  %39 = load i32, ptr %2, align 4, !tbaa !4
  %40 = icmp sgt i32 %39, 1
  br i1 %40, label %41, label %43, !prof !11

41:                                               ; preds = %38
  %42 = add nsw i32 %39, -1
  store i32 %42, ptr %2, align 4, !tbaa !4
  br label %lean_dec.exit51

43:                                               ; preds = %38
  %.not.i56 = icmp eq i32 %39, 0
  br i1 %.not.i56, label %lean_dec.exit51, label %44

44:                                               ; preds = %43
  tail call void @lean_dec_ref_cold(ptr noundef nonnull %2) #5
  br label %lean_dec.exit51

lean_dec.exit51:                                  ; preds = %44, %43, %41, %lean_dec.exit52
  %45 = ptrtoint ptr %1 to i64
  %46 = and i64 %45, 1
  %.not74 = icmp eq i64 %46, 0
  br i1 %.not74, label %47, label %lean_dec.exit50

47:                                               ; preds = %lean_dec.exit51
  %48 = load i32, ptr %1, align 4, !tbaa !4
  %49 = icmp sgt i32 %48, 1
  br i1 %49, label %50, label %52, !prof !11

50:                                               ; preds = %47
  %51 = add nsw i32 %48, -1
  store i32 %51, ptr %1, align 4, !tbaa !4
  br label %lean_dec.exit50

52:                                               ; preds = %47
  %.not.i58 = icmp eq i32 %48, 0
  br i1 %.not.i58, label %lean_dec.exit50, label %53

53:                                               ; preds = %52
  tail call void @lean_dec_ref_cold(ptr noundef nonnull %1) #5
  br label %lean_dec.exit50

lean_dec.exit50:                                  ; preds = %53, %52, %50, %lean_dec.exit51
  %54 = tail call ptr @lean_apply_8(ptr noundef %13, ptr noundef nonnull inttoptr (i64 1 to ptr), ptr noundef %5, ptr noundef %6, ptr noundef %7, ptr noundef %8, ptr noundef %9, ptr noundef %10, ptr noundef %11) #5
  br label %103

55:                                               ; preds = %12
  %56 = tail call ptr @l_Lean_Expr_appFnCleanup(ptr noundef %14, ptr noundef nonnull inttoptr (i64 1 to ptr)) #5
  %57 = load ptr, ptr @l_Lean_Elab_Tactic_BVDecide_Frontend_ReifiedBVLogical_of_go___lambda__5___closed__5, align 8, !tbaa !9
  %58 = tail call zeroext i8 @l_Lean_Expr_isConstOf(ptr noundef %56, ptr noundef %57) #5
  %59 = ptrtoint ptr %56 to i64
  %60 = and i64 %59, 1
  %.not = icmp eq i64 %60, 0
  br i1 %.not, label %61, label %lean_dec.exit49

61:                                               ; preds = %55
  %62 = load i32, ptr %56, align 4, !tbaa !4
  %63 = icmp sgt i32 %62, 1
  br i1 %63, label %64, label %66, !prof !11

64:                                               ; preds = %61
  %65 = add nsw i32 %62, -1
  store i32 %65, ptr %56, align 4, !tbaa !4
  br label %lean_dec.exit49

66:                                               ; preds = %61
  %.not.i60 = icmp eq i32 %62, 0
  br i1 %.not.i60, label %lean_dec.exit49, label %67

67:                                               ; preds = %66
  tail call void @lean_dec_ref_cold(ptr noundef nonnull %56) #5
  br label %lean_dec.exit49

lean_dec.exit49:                                  ; preds = %67, %66, %64, %55
  %68 = icmp eq i8 %58, 0
  br i1 %68, label %69, label %98

69:                                               ; preds = %lean_dec.exit49
  %70 = ptrtoint ptr %3 to i64
  %71 = and i64 %70, 1
  %.not68 = icmp eq i64 %71, 0
  br i1 %.not68, label %72, label %lean_dec.exit48

72:                                               ; preds = %69
  %73 = load i32, ptr %3, align 4, !tbaa !4
  %74 = icmp sgt i32 %73, 1
  br i1 %74, label %75, label %77, !prof !11

75:                                               ; preds = %72
  %76 = add nsw i32 %73, -1
  store i32 %76, ptr %3, align 4, !tbaa !4
  br label %lean_dec.exit48

77:                                               ; preds = %72
  %.not.i62 = icmp eq i32 %73, 0
  br i1 %.not.i62, label %lean_dec.exit48, label %78

78:                                               ; preds = %77
  tail call void @lean_dec_ref_cold(ptr noundef nonnull %3) #5
  br label %lean_dec.exit48

lean_dec.exit48:                                  ; preds = %78, %77, %75, %69
  %79 = ptrtoint ptr %2 to i64
  %80 = and i64 %79, 1
  %.not69 = icmp eq i64 %80, 0
  br i1 %.not69, label %81, label %lean_dec.exit47

81:                                               ; preds = %lean_dec.exit48
  %82 = load i32, ptr %2, align 4, !tbaa !4
  %83 = icmp sgt i32 %82, 1
  br i1 %83, label %84, label %86, !prof !11

84:                                               ; preds = %81
  %85 = add nsw i32 %82, -1
  store i32 %85, ptr %2, align 4, !tbaa !4
  br label %lean_dec.exit47

86:                                               ; preds = %81
  %.not.i64 = icmp eq i32 %82, 0
  br i1 %.not.i64, label %lean_dec.exit47, label %87

87:                                               ; preds = %86
  tail call void @lean_dec_ref_cold(ptr noundef nonnull %2) #5
  br label %lean_dec.exit47

lean_dec.exit47:                                  ; preds = %87, %86, %84, %lean_dec.exit48
  %88 = ptrtoint ptr %1 to i64
  %89 = and i64 %88, 1
  %.not70 = icmp eq i64 %89, 0
  br i1 %.not70, label %90, label %lean_dec.exit

90:                                               ; preds = %lean_dec.exit47
  %91 = load i32, ptr %1, align 4, !tbaa !4
  %92 = icmp sgt i32 %91, 1
  br i1 %92, label %93, label %95, !prof !11

93:                                               ; preds = %90
  %94 = add nsw i32 %91, -1
  store i32 %94, ptr %1, align 4, !tbaa !4
  br label %lean_dec.exit

95:                                               ; preds = %90
  %.not.i66 = icmp eq i32 %91, 0
  br i1 %.not.i66, label %lean_dec.exit, label %96

96:                                               ; preds = %95
  tail call void @lean_dec_ref_cold(ptr noundef nonnull %1) #5
  br label %lean_dec.exit

lean_dec.exit:                                    ; preds = %96, %95, %93, %lean_dec.exit47
  %97 = tail call ptr @lean_apply_8(ptr noundef %13, ptr noundef nonnull inttoptr (i64 1 to ptr), ptr noundef %5, ptr noundef %6, ptr noundef %7, ptr noundef %8, ptr noundef %9, ptr noundef %10, ptr noundef %11) #5
  br label %103

98:                                               ; preds = %lean_dec.exit49
  %99 = load ptr, ptr @l_Lean_Elab_Tactic_BVDecide_Frontend_ReifiedBVExpr_of_go___lambda__19___closed__5, align 8, !tbaa !9
  %100 = load ptr, ptr @l_Lean_Elab_Tactic_BVDecide_Frontend_ReifiedBVExpr_of_go___lambda__19___closed__2, align 8, !tbaa !9
  %101 = load ptr, ptr @l_Lean_Elab_Tactic_BVDecide_Frontend_ReifiedBVExpr_of_go___lambda__19___closed__4, align 8, !tbaa !9
  %102 = tail call ptr @l_Lean_Elab_Tactic_BVDecide_Frontend_ReifiedBVExpr_of_shiftReflection(ptr noundef %1, ptr noundef %2, ptr noundef %99, ptr noundef %100, ptr noundef %101, ptr noundef %3, ptr noundef %5, ptr noundef %6, ptr noundef %7, ptr noundef %8, ptr noundef %9, ptr noundef %10, ptr noundef %11)
  br label %103

103:                                              ; preds = %lean_dec.exit, %98, %lean_dec.exit50
  %.0 = phi ptr [ %54, %lean_dec.exit50 ], [ %97, %lean_dec.exit ], [ %102, %98 ]
  ret ptr %.0
}